target datalayout = "e-m:e-p270:32:32-p271:32:32-p272:64:64-i64:64-i128:128-f80:128-n8:16:32:64-S128"
target triple = "x86_64-pc-linux-gnu"

%"class.cv::cuda::GpuMat" = type { i32, i32, i32, i64, ptr, ptr, ptr, ptr, ptr }

; Function Attrs: inlinehint mustprogress nounwind uwtable
define linkonce_odr hidden noundef i64 @_ZNK2cv4cuda6GpuMat8elemSizeEv(ptr noundef nonnull align 8 dereferenceable(64) %0) #2 comdat align 2 {
  %2 = alloca ptr, align 8
  store ptr %0, ptr %2, align 8, !tbaa !3
  %3 = load ptr, ptr %2, align 8
  %4 = getelementptr inbounds nuw %"class.cv::cuda::GpuMat", ptr %3, i32 0, i32 0
  %5 = load i32, ptr %4, align 8, !tbaa !19
  %6 = and i32 %5, 4088
  %7 = ashr i32 %6, 3
  %8 = add nsw i32 %7, 1
  %9 = getelementptr inbounds nuw %"class.cv::cuda::GpuMat", ptr %3, i32 0, i32 0
  %10 = load i32, ptr %9, align 8, !tbaa !19
  %11 = and i32 %10, 7
  %12 = mul nsw i32 %11, 4
  %13 = ashr i32 675553809, %12
  %14 = and i32 %13, 15
  %15 = mul nsw i32 %8, %14
  %16 = sext i32 %15 to i64
  ret i64 %16
}

; Function Attrs: mustprogress uwtable
define void @_ZN2cv4cuda6GpuMat20updateContinuityFlagEv(ptr noundef nonnull align 8 dereferenceable(64) %0) #0 align 2 {
  %2 = alloca ptr, align 8
  %3 = alloca [2 x i32], align 4
  %4 = alloca [2 x i64], align 16
  store ptr %0, ptr %2, align 8, !tbaa !3
  %5 = load ptr, ptr %2, align 8
  call void @llvm.lifetime.start.p0(i64 8, ptr %3) #13
  %6 = getelementptr inbounds nuw %"class.cv::cuda::GpuMat", ptr %5, i32 0, i32 1
  %7 = load i32, ptr %6, align 4, !tbaa !8
  store i32 %7, ptr %3, align 4, !tbaa !15
  %8 = getelementptr inbounds i32, ptr %3, i64 1
  %9 = getelementptr inbounds nuw %"class.cv::cuda::GpuMat", ptr %5, i32 0, i32 2
  %10 = load i32, ptr %9, align 8, !tbaa !16
  store i32 %10, ptr %8, align 4, !tbaa !15
  call void @llvm.lifetime.start.p0(i64 16, ptr %4) #13
  %11 = getelementptr inbounds nuw %"class.cv::cuda::GpuMat", ptr %5, i32 0, i32 3
  %12 = load i64, ptr %11, align 8, !tbaa !17
  store i64 %12, ptr %4, align 8, !tbaa !18
  %13 = getelementptr inbounds i64, ptr %4, i64 1
  %14 = call noundef i64 @_ZNK2cv4cuda6GpuMat8elemSizeEv(ptr noundef nonnull align 8 dereferenceable(64) %5)
  store i64 %14, ptr %13, align 8, !tbaa !18
  %15 = getelementptr inbounds nuw %"class.cv::cuda::GpuMat", ptr %5, i32 0, i32 0
  %16 = load i32, ptr %15, align 8, !tbaa !19
  %17 = getelementptr inbounds [2 x i32], ptr %3, i64 0, i64 0
  %18 = getelementptr inbounds [2 x i64], ptr %4, i64 0, i64 0
  %19 = call noundef i32 @_ZN2cv20updateContinuityFlagEiiPKiPKm(i32 noundef %16, i32 noundef 2, ptr noundef %17, ptr noundef %18)
  %20 = getelementptr inbounds nuw %"class.cv::cuda::GpuMat", ptr %5, i32 0, i32 0
  store i32 %19, ptr %20, align 8, !tbaa !19
  call void @llvm.lifetime.end.p0(i64 16, ptr %4) #13
  call void @llvm.lifetime.end.p0(i64 8, ptr %3) #13
  ret void
}