; Function Attrs: mustprogress uwtable
define void @_ZN2cv4cuda6GpuMat20updateContinuityFlagEv(ptr noundef nonnull align 8 captures(none) dereferenceable(64) %0) local_unnamed_addr #0 align 2 {
  %2 = alloca [2 x i32], align 4
  %3 = alloca [2 x i64], align 16
  call void @llvm.lifetime.start.p0(i64 8, ptr nonnull %2) #15
  %4 = getelementptr inbounds nuw i8, ptr %0, i64 4
  %5 = load i32, ptr %4, align 4, !tbaa !3
  store i32 %5, ptr %2, align 4, !tbaa !13
  %6 = getelementptr inbounds nuw i8, ptr %2, i64 4
  %7 = getelementptr inbounds nuw i8, ptr %0, i64 8
  %8 = load i32, ptr %7, align 8, !tbaa !14
  store i32 %8, ptr %6, align 4, !tbaa !13
  call void @llvm.lifetime.start.p0(i64 16, ptr nonnull %3) #15
  %9 = getelementptr inbounds nuw i8, ptr %0, i64 16
  %10 = load i64, ptr %9, align 8, !tbaa !15
  store i64 %10, ptr %3, align 16, !tbaa !16
  %11 = getelementptr inbounds nuw i8, ptr %3, i64 8
  %12 = load i32, ptr %0, align 8, !tbaa !17
  %13 = lshr i32 %12, 3
  %14 = and i32 %13, 511
  %15 = add nuw nsw i32 %14, 1
  %16 = shl i32 %12, 2
  %17 = and i32 %16, 28
  %18 = lshr i32 675553809, %17
  %19 = and i32 %18, 15
  %20 = mul nuw nsw i32 %19, %15
  %21 = zext nneg i32 %20 to i64
  store i64 %21, ptr %11, align 8, !tbaa !16
  %22 = call noundef i32 @_ZN2cv20updateContinuityFlagEiiPKiPKm(i32 noundef %12, i32 noundef 2, ptr noundef nonnull %2, ptr noundef nonnull %3)
  store i32 %22, ptr %0, align 8, !tbaa !17
  call void @llvm.lifetime.end.p0(i64 16, ptr nonnull %3) #15
  call void @llvm.lifetime.end.p0(i64 8, ptr nonnull %2) #15
  ret void
}